target datalayout = "e-m:e-p270:32:32-p271:32:32-p272:64:64-i64:64-i128:128-f80:128-n8:16:32:64-S128"
target triple = "x86_64-pc-linux-gnu"

; Function Attrs: nounwind uwtable
define hidden void @python_hashlib_Hacl_Hash_SHA3_shake128_absorb_nblocks(ptr noundef %0, ptr noundef %1, i32 noundef %2) #0 {
  %4 = alloca ptr, align 8
  %5 = alloca ptr, align 8
  %6 = alloca i32, align 4
  %7 = alloca i32, align 4
  %8 = alloca [256 x i8], align 16
  %9 = alloca ptr, align 8
  %10 = alloca ptr, align 8
  %11 = alloca ptr, align 8
  store ptr %0, ptr %4, align 8, !tbaa !6
  store ptr %1, ptr %5, align 8, !tbaa !9
  store i32 %2, ptr %6, align 4, !tbaa !11
  call void @llvm.lifetime.start.p0(i64 4, ptr %7) #10
  store i32 0, ptr %7, align 4, !tbaa !11
  br label %12

12:                                               ; preds = %30, %3
  %13 = load i32, ptr %7, align 4, !tbaa !11
  %14 = load i32, ptr %6, align 4, !tbaa !11
  %15 = udiv i32 %14, 168
  %16 = icmp ult i32 %13, %15
  br i1 %16, label %18, label %17

17:                                               ; preds = %12
  call void @llvm.lifetime.end.p0(i64 4, ptr %7) #10
  br label %33

18:                                               ; preds = %12
  call void @llvm.lifetime.start.p0(i64 256, ptr %8) #10
  call void @llvm.memset.p0.i64(ptr align 16 %8, i8 0, i64 256, i1 false)
  call void @llvm.lifetime.start.p0(i64 8, ptr %9) #10
  %19 = getelementptr inbounds [256 x i8], ptr %8, i64 0, i64 0
  store ptr %19, ptr %9, align 8, !tbaa !9
  call void @llvm.lifetime.start.p0(i64 8, ptr %10) #10
  %20 = load ptr, ptr %5, align 8, !tbaa !9
  store ptr %20, ptr %10, align 8, !tbaa !9
  call void @llvm.lifetime.start.p0(i64 8, ptr %11) #10
  %21 = load ptr, ptr %9, align 8, !tbaa !9
  store ptr %21, ptr %11, align 8, !tbaa !9
  %22 = load ptr, ptr %11, align 8, !tbaa !9
  %23 = load ptr, ptr %10, align 8, !tbaa !9
  %24 = load i32, ptr %7, align 4, !tbaa !11
  %25 = mul i32 %24, 168
  %26 = zext i32 %25 to i64
  %27 = getelementptr i8, ptr %23, i64 %26
  call void @llvm.memcpy.p0.p0.i64(ptr align 1 %22, ptr align 1 %27, i64 168, i1 false)
  %28 = load ptr, ptr %9, align 8, !tbaa !9
  %29 = load ptr, ptr %4, align 8, !tbaa !6
  call void @python_hashlib_Hacl_Hash_SHA3_absorb_inner_32(i32 noundef 168, ptr noundef %28, ptr noundef %29)
  call void @llvm.lifetime.end.p0(i64 8, ptr %11) #10
  call void @llvm.lifetime.end.p0(i64 8, ptr %10) #10
  call void @llvm.lifetime.end.p0(i64 8, ptr %9) #10
  call void @llvm.lifetime.end.p0(i64 256, ptr %8) #10
  br label %30

30:                                               ; preds = %18
  %31 = load i32, ptr %7, align 4, !tbaa !11
  %32 = add i32 %31, 1
  store i32 %32, ptr %7, align 4, !tbaa !11
  br label %12, !llvm.loop !96

33:                                               ; preds = %17
  ret void
}