; Function Attrs: nofree norecurse nosync nounwind memory(argmem: readwrite) uwtable
define hidden void @python_hashlib_Hacl_Hash_SHA3_shake128_absorb_nblocks(ptr noundef %0, ptr noundef readonly captures(none) %1, i32 noundef %2) local_unnamed_addr #4 {
  %4 = alloca [256 x i8], align 16
  %.not = icmp ult i32 %2, 168
  br i1 %.not, label %._crit_edge, label %.lr.ph.preheader

.lr.ph.preheader:                                 ; preds = %3
  %5 = udiv i32 %2, 168
  %wide.trip.count = zext nneg i32 %5 to i64
  %6 = getelementptr inbounds nuw i8, ptr %4, i64 168
  br label %.lr.ph

._crit_edge:                                      ; preds = %.lr.ph, %3
  ret void

.lr.ph:                                           ; preds = %.lr.ph.preheader, %.lr.ph
  %indvars.iv = phi i64 [ 0, %.lr.ph.preheader ], [ %indvars.iv.next, %.lr.ph ]
  call void @llvm.lifetime.start.p0(i64 256, ptr nonnull %4) #19
  %7 = mul nuw nsw i64 %indvars.iv, 168
  %8 = getelementptr i8, ptr %1, i64 %7
  call void @llvm.memset.p0.i64(ptr noundef nonnull align 8 dereferenceable(88) %6, i8 0, i64 88, i1 false)
  call void @llvm.memcpy.p0.p0.i64(ptr noundef nonnull align 16 dereferenceable(168) %4, ptr noundef nonnull align 1 dereferenceable(168) %8, i64 168, i1 false)
  call void @python_hashlib_Hacl_Hash_SHA3_absorb_inner_32(i32 poison, ptr noundef nonnull %4, ptr noundef %0)
  call void @llvm.lifetime.end.p0(i64 256, ptr nonnull %4) #19
  %indvars.iv.next = add nuw nsw i64 %indvars.iv, 1
  %exitcond.not = icmp eq i64 %indvars.iv.next, %wide.trip.count
  br i1 %exitcond.not, label %._crit_edge, label %.lr.ph, !llvm.loop !49
}